target datalayout = "e-m:e-p270:32:32-p271:32:32-p272:64:64-i64:64-i128:128-f80:128-n8:16:32:64-S128"
target triple = "x86_64-unknown-linux-gnu"

%"class.facebook::hermes::tracing::TraceInterpreter" = type { ptr, %"struct.facebook::hermes::tracing::TraceInterpreter::ExecuteOptions", ptr, %"class.std::map", ptr, ptr, ptr, ptr, %"class.std::unordered_map", %"class.std::unordered_map.19", %"class.std::__cxx11::basic_string", i8, i64 }
%"struct.facebook::hermes::tracing::TraceInterpreter::ExecuteOptions" = type <{ %"class.hermes::vm::GCConfig::Builder", i8, i8, [2 x i8], i32, i32, i8, i8, [2 x i8], %"class.std::__cxx11::basic_string", i32, [4 x i8], %"class.std::__cxx11::basic_string", %"class.llvh::Optional", [2 x i8], %"class.llvh::Optional.9", [4 x i8] }>
%"class.hermes::vm::GCConfig::Builder" = type { %"class.hermes::vm::GCConfig", i8, i8, i8, i8, i8, i8, i8, i8, i8, i8, i8, i8, i8, i8, i8, i8 }
%"class.hermes::vm::GCConfig" = type { i32, i32, i32, double, i32, %"class.hermes::vm::GCSanitizeConfig", i8, i32, %"class.std::__cxx11::basic_string", %"class.hermes::vm::GCTripwireConfig", i8, i8, i8, i8, %"class.std::function.3", %"class.std::function.6" }
%"class.hermes::vm::GCSanitizeConfig" = type { double, i64 }
%"class.hermes::vm::GCTripwireConfig" = type { i32, %"class.std::function" }
%"class.std::function" = type { %"class.std::_Function_base", ptr }
%"class.std::_Function_base" = type { %"union.std::_Any_data", ptr }
%"union.std::_Any_data" = type { %"union.std::_Nocopy_types" }
%"union.std::_Nocopy_types" = type { { i64, i64 } }
%"class.std::function.3" = type { %"class.std::_Function_base", ptr }
%"class.std::function.6" = type { %"class.std::_Function_base", ptr }
%"class.llvh::Optional" = type { %"struct.llvh::optional_detail::OptionalStorage" }
%"struct.llvh::optional_detail::OptionalStorage" = type { %"struct.llvh::AlignedCharArrayUnion", i8 }
%"struct.llvh::AlignedCharArrayUnion" = type { %"struct.llvh::AlignedCharArray" }
%"struct.llvh::AlignedCharArray" = type { [1 x i8] }
%"class.llvh::Optional.9" = type { %"struct.llvh::optional_detail::OptionalStorage.10" }
%"struct.llvh::optional_detail::OptionalStorage.10" = type { %"struct.llvh::AlignedCharArrayUnion.11", i8, [3 x i8] }
%"struct.llvh::AlignedCharArrayUnion.11" = type { %"struct.llvh::AlignedCharArray.12" }
%"struct.llvh::AlignedCharArray.12" = type { [4 x i8] }
%"class.std::map" = type { %"class.std::_Rb_tree" }
%"class.std::_Rb_tree" = type { %"struct.std::_Rb_tree<std::array<unsigned char, 20>, std::pair<const std::array<unsigned char, 20>, std::shared_ptr<const facebook::jsi::Buffer>>, std::_Select1st<std::pair<const std::array<unsigned char, 20>, std::shared_ptr<const facebook::jsi::Buffer>>>, std::less<std::array<unsigned char, 20>>>::_Rb_tree_impl" }
%"struct.std::_Rb_tree<std::array<unsigned char, 20>, std::pair<const std::array<unsigned char, 20>, std::shared_ptr<const facebook::jsi::Buffer>>, std::_Select1st<std::pair<const std::array<unsigned char, 20>, std::shared_ptr<const facebook::jsi::Buffer>>>, std::less<std::array<unsigned char, 20>>>::_Rb_tree_impl" = type { %"struct.std::_Rb_tree_key_compare", %"struct.std::_Rb_tree_header" }
%"struct.std::_Rb_tree_key_compare" = type { %"struct.std::less" }
%"struct.std::less" = type { i8 }
%"struct.std::_Rb_tree_header" = type { %"struct.std::_Rb_tree_node_base", i64 }
%"struct.std::_Rb_tree_node_base" = type { i32, ptr, ptr, ptr }
%"class.std::unordered_map" = type { %"class.std::_Hashtable" }
%"class.std::_Hashtable" = type { ptr, i64, %"struct.std::__detail::_Hash_node_base", i64, %"struct.std::__detail::_Prime_rehash_policy", ptr }
%"struct.std::__detail::_Hash_node_base" = type { ptr }
%"struct.std::__detail::_Prime_rehash_policy" = type { float, i64 }
%"class.std::unordered_map.19" = type { %"class.std::_Hashtable.20" }
%"class.std::_Hashtable.20" = type { ptr, i64, %"struct.std::__detail::_Hash_node_base", i64, %"struct.std::__detail::_Prime_rehash_policy", ptr }
%"class.std::__cxx11::basic_string" = type { %"struct.std::__cxx11::basic_string<char>::_Alloc_hider", i64, %union.anon }
%"struct.std::__cxx11::basic_string<char>::_Alloc_hider" = type { ptr }
%union.anon = type { i64, [8 x i8] }
%"class.facebook::hermes::tracing::SynthTrace::TraceValue" = type { i32, %union.anon.205 }
%union.anon.205 = type { double }
%"class.facebook::jsi::Value" = type { i32, %"union.facebook::jsi::Value::Data" }
%"union.facebook::jsi::Value::Data" = type { double }

; Function Attrs: mustprogress uwtable
define linkonce_odr hidden void @_ZN8facebook6hermes7tracing16TraceInterpreter14addValueToDefsINS_3jsi5ValueEEEvRKNS2_4CallEmmRKT_RSt13unordered_mapImS9_St4hashImESt8equal_toImESaISt4pairIKmS9_EEESM_(ptr noundef nonnull align 8 dereferenceable(576) %this, ptr noundef nonnull align 8 dereferenceable(80) %call, i64 noundef %valID, i64 noundef %globalRecordNum, ptr noundef nonnull align 8 dereferenceable(16) %valRef, ptr noundef nonnull align 8 dereferenceable(56) %locals, ptr noundef nonnull align 8 dereferenceable(56) %globals) #4 comdat align 2 personality ptr @__gxx_personality_v0 {
entry:
  %this.addr = alloca ptr, align 8
  %call.addr = alloca ptr, align 8
  %valID.addr = alloca i64, align 8
  %globalRecordNum.addr = alloca i64, align 8
  %valRef.addr = alloca ptr, align 8
  %locals.addr = alloca ptr, align 8
  %globals.addr = alloca ptr, align 8
  %ref.tmp = alloca %"class.facebook::jsi::Value", align 8
  %exn.slot = alloca ptr, align 8
  %ehselector.slot = alloca i32, align 4
  store ptr %this, ptr %this.addr, align 8
  store ptr %call, ptr %call.addr, align 8
  store i64 %valID, ptr %valID.addr, align 8
  store i64 %globalRecordNum, ptr %globalRecordNum.addr, align 8
  store ptr %valRef, ptr %valRef.addr, align 8
  store ptr %locals, ptr %locals.addr, align 8
  store ptr %globals, ptr %globals.addr, align 8
  %this1 = load ptr, ptr %this.addr, align 8
  %0 = load ptr, ptr %call.addr, align 8
  %1 = load i64, ptr %valID.addr, align 8
  %2 = load i64, ptr %globalRecordNum.addr, align 8
  %rt_ = getelementptr inbounds %"class.facebook::hermes::tracing::TraceInterpreter", ptr %this1, i32 0, i32 0
  %3 = load ptr, ptr %rt_, align 8
  %4 = load ptr, ptr %valRef.addr, align 8
  call void @_ZN8facebook3jsi5ValueC1ERNS0_7RuntimeERKS1_(ptr noundef nonnull align 8 dereferenceable(16) %ref.tmp, ptr noundef nonnull align 8 dereferenceable(8) %3, ptr noundef nonnull align 8 dereferenceable(16) %4)
  %5 = load ptr, ptr %locals.addr, align 8
  %6 = load ptr, ptr %globals.addr, align 8
  invoke void @_ZN8facebook6hermes7tracing16TraceInterpreter14addValueToDefsINS_3jsi5ValueEEEvRKNS2_4CallEmmOT_RSt13unordered_mapImS9_St4hashImESt8equal_toImESaISt4pairIKmS9_EEESL_(ptr noundef nonnull align 8 dereferenceable(576) %this1, ptr noundef nonnull align 8 dereferenceable(80) %0, i64 noundef %1, i64 noundef %2, ptr noundef nonnull align 8 dereferenceable(16) %ref.tmp, ptr noundef nonnull align 8 dereferenceable(56) %5, ptr noundef nonnull align 8 dereferenceable(56) %6)
          to label %invoke.cont unwind label %lpad

invoke.cont:                                      ; preds = %entry
  call void @_ZN8facebook3jsi5ValueD1Ev(ptr noundef nonnull align 8 dereferenceable(16) %ref.tmp) #3
  ret void

lpad:                                             ; preds = %entry
  %7 = landingpad { ptr, i32 }
          cleanup
  %8 = extractvalue { ptr, i32 } %7, 0
  store ptr %8, ptr %exn.slot, align 8
  %9 = extractvalue { ptr, i32 } %7, 1
  store i32 %9, ptr %ehselector.slot, align 4
  call void @_ZN8facebook3jsi5ValueD1Ev(ptr noundef nonnull align 8 dereferenceable(16) %ref.tmp) #3
  br label %eh.resume

eh.resume:                                        ; preds = %lpad
  %exn = load ptr, ptr %exn.slot, align 8
  %sel = load i32, ptr %ehselector.slot, align 4
  %lpad.val = insertvalue { ptr, i32 } poison, ptr %exn, 0
  %lpad.val2 = insertvalue { ptr, i32 } %lpad.val, i32 %sel, 1
  resume { ptr, i32 } %lpad.val2
}

; Function Attrs: mustprogress uwtable
define linkonce_odr hidden void @_ZN8facebook6hermes7tracing16TraceInterpreter17addJSIValueToDefsERKNS2_4CallEmmONS_3jsi5ValueERSt13unordered_mapImS7_St4hashImESt8equal_toImESaISt4pairIKmS7_EEE(ptr noundef nonnull align 8 dereferenceable(576) %this, ptr noundef nonnull align 8 dereferenceable(80) %call, i64 noundef %valID, i64 noundef %globalRecordNum, ptr noundef nonnull align 8 dereferenceable(16) %val, ptr noundef nonnull align 8 dereferenceable(56) %locals) #4 comdat align 2 {
entry:
  %this.addr = alloca ptr, align 8
  %call.addr = alloca ptr, align 8
  %valID.addr = alloca i64, align 8
  %globalRecordNum.addr = alloca i64, align 8
  %val.addr = alloca ptr, align 8
  %locals.addr = alloca ptr, align 8
  store ptr %this, ptr %this.addr, align 8
  store ptr %call, ptr %call.addr, align 8
  store i64 %valID, ptr %valID.addr, align 8
  store i64 %globalRecordNum, ptr %globalRecordNum.addr, align 8
  store ptr %val, ptr %val.addr, align 8
  store ptr %locals, ptr %locals.addr, align 8
  %this1 = load ptr, ptr %this.addr, align 8
  %0 = load ptr, ptr %call.addr, align 8
  %1 = load i64, ptr %valID.addr, align 8
  %2 = load i64, ptr %globalRecordNum.addr, align 8
  %3 = load ptr, ptr %val.addr, align 8
  %4 = load ptr, ptr %locals.addr, align 8
  %gom_ = getelementptr inbounds %"class.facebook::hermes::tracing::TraceInterpreter", ptr %this1, i32 0, i32 8
  call void @_ZN8facebook6hermes7tracing16TraceInterpreter14addValueToDefsINS_3jsi5ValueEEEvRKNS2_4CallEmmRKT_RSt13unordered_mapImS9_St4hashImESt8equal_toImESaISt4pairIKmS9_EEESM_(ptr noundef nonnull align 8 dereferenceable(576) %this1, ptr noundef nonnull align 8 dereferenceable(80) %0, i64 noundef %1, i64 noundef %2, ptr noundef nonnull align 8 dereferenceable(16) %3, ptr noundef nonnull align 8 dereferenceable(56) %4, ptr noundef nonnull align 8 dereferenceable(56) %gom_)
  ret void
}

; Function Attrs: mustprogress nounwind uwtable
define linkonce_odr hidden noundef i64 @_ZNK8facebook6hermes7tracing10SynthTrace10TraceValue6getUIDEv(ptr noundef nonnull align 8 dereferenceable(16) %this) #5 comdat align 2 {
entry:
  %this.addr = alloca ptr, align 8
  store ptr %this, ptr %this.addr, align 8
  %this1 = load ptr, ptr %this.addr, align 8
  %val_ = getelementptr inbounds %"class.facebook::hermes::tracing::SynthTrace::TraceValue", ptr %this1, i32 0, i32 1
  %0 = load i64, ptr %val_, align 8
  ret i64 %0
}

; Function Attrs: mustprogress nounwind uwtable
define linkonce_odr hidden noundef zeroext i1 @_ZNK8facebook6hermes7tracing10SynthTrace10TraceValue8isSymbolEv(ptr noundef nonnull align 8 dereferenceable(16) %this) #5 comdat align 2 {
entry:
  %this.addr = alloca ptr, align 8
  store ptr %this, ptr %this.addr, align 8
  %this1 = load ptr, ptr %this.addr, align 8
  %tag_ = getelementptr inbounds %"class.facebook::hermes::tracing::SynthTrace::TraceValue", ptr %this1, i32 0, i32 0
  %0 = load i32, ptr %tag_, align 8
  %cmp = icmp eq i32 %0, 7
  ret i1 %cmp
}

; Function Attrs: mustprogress nounwind uwtable
define linkonce_odr hidden noundef zeroext i1 @_ZNK8facebook6hermes7tracing10SynthTrace10TraceValue8isStringEv(ptr noundef nonnull align 8 dereferenceable(16) %this) #5 comdat align 2 {
entry:
  %this.addr = alloca ptr, align 8
  store ptr %this, ptr %this.addr, align 8
  %this1 = load ptr, ptr %this.addr, align 8
  %tag_ = getelementptr inbounds %"class.facebook::hermes::tracing::SynthTrace::TraceValue", ptr %this1, i32 0, i32 0
  %0 = load i32, ptr %tag_, align 8
  %cmp = icmp eq i32 %0, 5
  ret i1 %cmp
}

; Function Attrs: mustprogress nounwind uwtable
define linkonce_odr hidden noundef zeroext i1 @_ZNK8facebook6hermes7tracing10SynthTrace10TraceValue8isObjectEv(ptr noundef nonnull align 8 dereferenceable(16) %this) #5 comdat align 2 {
entry:
  %this.addr = alloca ptr, align 8
  store ptr %this, ptr %this.addr, align 8
  %this1 = load ptr, ptr %this.addr, align 8
  %tag_ = getelementptr inbounds %"class.facebook::hermes::tracing::SynthTrace::TraceValue", ptr %this1, i32 0, i32 0
  %0 = load i32, ptr %tag_, align 8
  %cmp = icmp eq i32 %0, 4
  ret i1 %cmp
}

; Function Attrs: mustprogress uwtable
define hidden void @_ZN8facebook6hermes7tracing16TraceInterpreter17ifObjectAddToDefsERKNS1_10SynthTrace10TraceValueEONS_3jsi5ValueERKNS2_4CallEmRSt13unordered_mapImS8_St4hashImESt8equal_toImESaISt4pairIKmS8_EEEb(ptr noundef nonnull align 8 dereferenceable(576) %this, ptr noundef nonnull align 8 dereferenceable(16) %traceValue, ptr noundef nonnull align 8 dereferenceable(16) %val, ptr noundef nonnull align 8 dereferenceable(80) %call, i64 noundef %globalRecordNum, ptr noundef nonnull align 8 dereferenceable(56) %locals, i1 noundef zeroext %isThis) #4 align 2 {
entry:
  %this.addr = alloca ptr, align 8
  %traceValue.addr = alloca ptr, align 8
  %val.addr = alloca ptr, align 8
  %call.addr = alloca ptr, align 8
  %globalRecordNum.addr = alloca i64, align 8
  %locals.addr = alloca ptr, align 8
  %isThis.addr = alloca i8, align 1
  store ptr %this, ptr %this.addr, align 8
  store ptr %traceValue, ptr %traceValue.addr, align 8
  store ptr %val, ptr %val.addr, align 8
  store ptr %call, ptr %call.addr, align 8
  store i64 %globalRecordNum, ptr %globalRecordNum.addr, align 8
  store ptr %locals, ptr %locals.addr, align 8
  %frombool = zext i1 %isThis to i8
  store i8 %frombool, ptr %isThis.addr, align 1
  %this1 = load ptr, ptr %this.addr, align 8
  %0 = load ptr, ptr %traceValue.addr, align 8
  %call2 = call noundef zeroext i1 @_ZNK8facebook6hermes7tracing10SynthTrace10TraceValue8isObjectEv(ptr noundef nonnull align 8 dereferenceable(16) %0)
  br i1 %call2, label %if.then, label %lor.lhs.false

lor.lhs.false:                                    ; preds = %entry
  %1 = load ptr, ptr %traceValue.addr, align 8
  %call3 = call noundef zeroext i1 @_ZNK8facebook6hermes7tracing10SynthTrace10TraceValue8isStringEv(ptr noundef nonnull align 8 dereferenceable(16) %1)
  br i1 %call3, label %if.then, label %lor.lhs.false4

lor.lhs.false4:                                   ; preds = %lor.lhs.false
  %2 = load ptr, ptr %traceValue.addr, align 8
  %call5 = call noundef zeroext i1 @_ZNK8facebook6hermes7tracing10SynthTrace10TraceValue8isSymbolEv(ptr noundef nonnull align 8 dereferenceable(16) %2)
  br i1 %call5, label %if.then, label %if.end

if.then:                                          ; preds = %lor.lhs.false4, %lor.lhs.false, %entry
  %3 = load ptr, ptr %call.addr, align 8
  %4 = load ptr, ptr %traceValue.addr, align 8
  %call6 = call noundef i64 @_ZNK8facebook6hermes7tracing10SynthTrace10TraceValue6getUIDEv(ptr noundef nonnull align 8 dereferenceable(16) %4)
  %5 = load i64, ptr %globalRecordNum.addr, align 8
  %6 = load ptr, ptr %val.addr, align 8
  %7 = load ptr, ptr %locals.addr, align 8
  call void @_ZN8facebook6hermes7tracing16TraceInterpreter17addJSIValueToDefsERKNS2_4CallEmmONS_3jsi5ValueERSt13unordered_mapImS7_St4hashImESt8equal_toImESaISt4pairIKmS7_EEE(ptr noundef nonnull align 8 dereferenceable(576) %this1, ptr noundef nonnull align 8 dereferenceable(80) %3, i64 noundef %call6, i64 noundef %5, ptr noundef nonnull align 8 dereferenceable(16) %6, ptr noundef nonnull align 8 dereferenceable(56) %7)
  br label %if.end

if.end:                                           ; preds = %if.then, %lor.lhs.false4
  ret void
}

; Function Attrs: mustprogress uwtable
define hidden void @_ZN8facebook6hermes7tracing16TraceInterpreter17ifObjectAddToDefsERKNS1_10SynthTrace10TraceValueERKNS_3jsi5ValueERKNS2_4CallEmRSt13unordered_mapImS8_St4hashImESt8equal_toImESaISt4pairIKmS8_EEEb(ptr noundef nonnull align 8 dereferenceable(576) %this, ptr noundef nonnull align 8 dereferenceable(16) %traceValue, ptr noundef nonnull align 8 dereferenceable(16) %val, ptr noundef nonnull align 8 dereferenceable(80) %call, i64 noundef %globalRecordNum, ptr noundef nonnull align 8 dereferenceable(56) %locals, i1 noundef zeroext %isThis) #4 align 2 personality ptr @__gxx_personality_v0 {
entry:
  %this.addr = alloca ptr, align 8
  %traceValue.addr = alloca ptr, align 8
  %val.addr = alloca ptr, align 8
  %call.addr = alloca ptr, align 8
  %globalRecordNum.addr = alloca i64, align 8
  %locals.addr = alloca ptr, align 8
  %isThis.addr = alloca i8, align 1
  %ref.tmp = alloca %"class.facebook::jsi::Value", align 8
  %exn.slot = alloca ptr, align 8
  %ehselector.slot = alloca i32, align 4
  store ptr %this, ptr %this.addr, align 8
  store ptr %traceValue, ptr %traceValue.addr, align 8
  store ptr %val, ptr %val.addr, align 8
  store ptr %call, ptr %call.addr, align 8
  store i64 %globalRecordNum, ptr %globalRecordNum.addr, align 8
  store ptr %locals, ptr %locals.addr, align 8
  %frombool = zext i1 %isThis to i8
  store i8 %frombool, ptr %isThis.addr, align 1
  %this1 = load ptr, ptr %this.addr, align 8
  %0 = load ptr, ptr %traceValue.addr, align 8
  %rt_ = getelementptr inbounds %"class.facebook::hermes::tracing::TraceInterpreter", ptr %this1, i32 0, i32 0
  %1 = load ptr, ptr %rt_, align 8
  %2 = load ptr, ptr %val.addr, align 8
  call void @_ZN8facebook3jsi5ValueC1ERNS0_7RuntimeERKS1_(ptr noundef nonnull align 8 dereferenceable(16) %ref.tmp, ptr noundef nonnull align 8 dereferenceable(8) %1, ptr noundef nonnull align 8 dereferenceable(16) %2)
  %3 = load ptr, ptr %call.addr, align 8
  %4 = load i64, ptr %globalRecordNum.addr, align 8
  %5 = load ptr, ptr %locals.addr, align 8
  %6 = load i8, ptr %isThis.addr, align 1
  %tobool = trunc i8 %6 to i1
  invoke void @_ZN8facebook6hermes7tracing16TraceInterpreter17ifObjectAddToDefsERKNS1_10SynthTrace10TraceValueEONS_3jsi5ValueERKNS2_4CallEmRSt13unordered_mapImS8_St4hashImESt8equal_toImESaISt4pairIKmS8_EEEb(ptr noundef nonnull align 8 dereferenceable(576) %this1, ptr noundef nonnull align 8 dereferenceable(16) %0, ptr noundef nonnull align 8 dereferenceable(16) %ref.tmp, ptr noundef nonnull align 8 dereferenceable(80) %3, i64 noundef %4, ptr noundef nonnull align 8 dereferenceable(56) %5, i1 noundef zeroext %tobool)
          to label %invoke.cont unwind label %lpad

invoke.cont:                                      ; preds = %entry
  call void @_ZN8facebook3jsi5ValueD1Ev(ptr noundef nonnull align 8 dereferenceable(16) %ref.tmp) #3
  ret void

lpad:                                             ; preds = %entry
  %7 = landingpad { ptr, i32 }
          cleanup
  %8 = extractvalue { ptr, i32 } %7, 0
  store ptr %8, ptr %exn.slot, align 8
  %9 = extractvalue { ptr, i32 } %7, 1
  store i32 %9, ptr %ehselector.slot, align 4
  call void @_ZN8facebook3jsi5ValueD1Ev(ptr noundef nonnull align 8 dereferenceable(16) %ref.tmp) #3
  br label %eh.resume

eh.resume:                                        ; preds = %lpad
  %exn = load ptr, ptr %exn.slot, align 8
  %sel = load i32, ptr %ehselector.slot, align 4
  %lpad.val = insertvalue { ptr, i32 } poison, ptr %exn, 0
  %lpad.val2 = insertvalue { ptr, i32 } %lpad.val, i32 %sel, 1
  resume { ptr, i32 } %lpad.val2
}