; Function Attrs: mustprogress uwtable
define hidden void @_ZN8facebook6hermes7tracing16TraceInterpreter17ifObjectAddToDefsERKNS1_10SynthTrace10TraceValueERKNS_3jsi5ValueERKNS2_4CallEmRSt13unordered_mapImS8_St4hashImESt8equal_toImESaISt4pairIKmS8_EEEb(ptr noundef nonnull align 8 dereferenceable(576) %this, ptr nocapture noundef nonnull readonly align 8 dereferenceable(16) %traceValue, ptr noundef nonnull align 8 dereferenceable(16) %val, ptr noundef nonnull align 8 dereferenceable(80) %call, i64 noundef %globalRecordNum, ptr noundef nonnull align 8 dereferenceable(56) %locals, i1 zeroext %isThis) local_unnamed_addr #3 align 2 personality ptr @__gxx_personality_v0 {
entry:
  %ref.tmp.i.i.i = alloca %"class.facebook::jsi::Value", align 8
  %ref.tmp = alloca %"class.facebook::jsi::Value", align 8
  %0 = load ptr, ptr %this, align 8
  call void @_ZN8facebook3jsi5ValueC1ERNS0_7RuntimeERKS1_(ptr noundef nonnull align 8 dereferenceable(16) %ref.tmp, ptr noundef nonnull align 8 dereferenceable(8) %0, ptr noundef nonnull align 8 dereferenceable(16) %val)
  %1 = load i32, ptr %traceValue, align 8
  switch i32 %1, label %invoke.cont [
    i32 4, label %if.then.i
    i32 5, label %if.then.i
    i32 7, label %if.then.i
  ]

if.then.i:                                        ; preds = %entry, %entry, %entry
  %val_.i.i = getelementptr inbounds i8, ptr %traceValue, i64 8
  %2 = load i64, ptr %val_.i.i, align 8
  call void @llvm.lifetime.start.p0(i64 16, ptr nonnull %ref.tmp.i.i.i)
  %3 = load ptr, ptr %this, align 8
  invoke void @_ZN8facebook3jsi5ValueC1ERNS0_7RuntimeERKS1_(ptr noundef nonnull align 8 dereferenceable(16) %ref.tmp.i.i.i, ptr noundef nonnull align 8 dereferenceable(8) %3, ptr noundef nonnull align 8 dereferenceable(16) %ref.tmp)
          to label %.noexc unwind label %lpad

.noexc:                                           ; preds = %if.then.i
  %gom_.i.i = getelementptr inbounds i8, ptr %this, i64 416
  invoke void @_ZN8facebook6hermes7tracing16TraceInterpreter14addValueToDefsINS_3jsi5ValueEEEvRKNS2_4CallEmmOT_RSt13unordered_mapImS9_St4hashImESt8equal_toImESaISt4pairIKmS9_EEESL_(ptr noundef nonnull align 8 dereferenceable(576) %this, ptr noundef nonnull align 8 dereferenceable(80) %call, i64 noundef %2, i64 noundef %globalRecordNum, ptr noundef nonnull align 8 dereferenceable(16) %ref.tmp.i.i.i, ptr noundef nonnull align 8 dereferenceable(56) %locals, ptr noundef nonnull align 8 dereferenceable(56) %gom_.i.i)
          to label %_ZN8facebook6hermes7tracing16TraceInterpreter17addJSIValueToDefsERKNS2_4CallEmmONS_3jsi5ValueERSt13unordered_mapImS7_St4hashImESt8equal_toImESaISt4pairIKmS7_EEE.exit.i unwind label %lpad.i.i.i

lpad.i.i.i:                                       ; preds = %.noexc
  %4 = landingpad { ptr, i32 }
          cleanup
  call void @_ZN8facebook3jsi5ValueD1Ev(ptr noundef nonnull align 8 dereferenceable(16) %ref.tmp.i.i.i) #29
  br label %lpad.body

_ZN8facebook6hermes7tracing16TraceInterpreter17addJSIValueToDefsERKNS2_4CallEmmONS_3jsi5ValueERSt13unordered_mapImS7_St4hashImESt8equal_toImESaISt4pairIKmS7_EEE.exit.i: ; preds = %.noexc
  call void @_ZN8facebook3jsi5ValueD1Ev(ptr noundef nonnull align 8 dereferenceable(16) %ref.tmp.i.i.i) #29
  call void @llvm.lifetime.end.p0(i64 16, ptr nonnull %ref.tmp.i.i.i)
  br label %invoke.cont

invoke.cont:                                      ; preds = %_ZN8facebook6hermes7tracing16TraceInterpreter17addJSIValueToDefsERKNS2_4CallEmmONS_3jsi5ValueERSt13unordered_mapImS7_St4hashImESt8equal_toImESaISt4pairIKmS7_EEE.exit.i, %entry
  call void @_ZN8facebook3jsi5ValueD1Ev(ptr noundef nonnull align 8 dereferenceable(16) %ref.tmp) #29
  ret void

lpad:                                             ; preds = %if.then.i
  %5 = landingpad { ptr, i32 }
          cleanup
  br label %lpad.body

lpad.body:                                        ; preds = %lpad.i.i.i, %lpad
  %eh.lpad-body = phi { ptr, i32 } [ %5, %lpad ], [ %4, %lpad.i.i.i ]
  call void @_ZN8facebook3jsi5ValueD1Ev(ptr noundef nonnull align 8 dereferenceable(16) %ref.tmp) #29
  resume { ptr, i32 } %eh.lpad-body
}